target datalayout = "e-m:e-p270:32:32-p271:32:32-p272:64:64-i64:64-i128:128-f80:128-n8:16:32:64-S128"
target triple = "x86_64-unknown-linux-gnu"

%"class.re2::Regexp" = type { i8, i8, i16, i16, i16, %union.anon, ptr, %union.anon.0 }
%union.anon = type { ptr }
%union.anon.0 = type { %struct.anon.1 }
%struct.anon.1 = type { i32, ptr }
%class.LogMessage = type { i8, %"class.std::__cxx11::basic_ostringstream" }
%"class.std::__cxx11::basic_ostringstream" = type { %"class.std::basic_ostream.base", %"class.std::__cxx11::basic_stringbuf", %"class.std::basic_ios" }
%"class.std::basic_ostream.base" = type { ptr }
%"class.std::__cxx11::basic_stringbuf" = type { %"class.std::basic_streambuf", i32, %"class.std::__cxx11::basic_string" }
%"class.std::basic_streambuf" = type { ptr, ptr, ptr, ptr, ptr, ptr, ptr, %"class.std::locale" }
%"class.std::locale" = type { ptr }
%"class.std::__cxx11::basic_string" = type { %"struct.std::__cxx11::basic_string<char>::_Alloc_hider", i64, %union.anon.4 }
%"struct.std::__cxx11::basic_string<char>::_Alloc_hider" = type { ptr }
%union.anon.4 = type { i64, [8 x i8] }
%"class.std::basic_ios" = type { %"class.std::ios_base", ptr, i8, i8, ptr, ptr, ptr, ptr }
%"class.std::ios_base" = type { ptr, i64, i64, i32, i32, i32, ptr, %"struct.std::ios_base::_Words", [8 x %"struct.std::ios_base::_Words"], i32, ptr, %"class.std::locale" }
%"struct.std::ios_base::_Words" = type { ptr, i64 }
%struct.anon.2 = type { i32, ptr }
%struct.anon.3 = type { ptr, ptr }
%"class.re2::CharClassBuilder" = type { i32, i32, i32, %"class.std::set" }
%"class.std::set" = type { %"class.std::_Rb_tree" }
%"class.std::_Rb_tree" = type { %"struct.std::_Rb_tree<re2::RuneRange, re2::RuneRange, std::_Identity<re2::RuneRange>, re2::RuneRangeLess>::_Rb_tree_impl" }
%"struct.std::_Rb_tree<re2::RuneRange, re2::RuneRange, std::_Identity<re2::RuneRange>, re2::RuneRangeLess>::_Rb_tree_impl" = type { %"struct.std::_Rb_tree_key_compare", %"struct.std::_Rb_tree_header" }
%"struct.std::_Rb_tree_key_compare" = type { %"struct.re2::RuneRangeLess" }
%"struct.re2::RuneRangeLess" = type { i8 }
%"struct.std::_Rb_tree_header" = type { %"struct.std::_Rb_tree_node_base", i64 }
%"struct.std::_Rb_tree_node_base" = type { i32, ptr, ptr, ptr }

@.str = private unnamed_addr constant [99 x i8] c"generated/home/dtcxzyw/WorkSpace/Projects/compilers/llvm-opt-benchmark/bench/re2/re2/re2/regexp.cc\00", align 1
@.str.1 = private unnamed_addr constant [22 x i8] c"Regexp not destroyed.\00", align 1
@.str.3 = private unnamed_addr constant [3 x i8] c": \00", align 1
@.str.4 = private unnamed_addr constant [2 x i8] c":\00", align 1

; Function Attrs: mustprogress nounwind uwtable
define linkonce_odr void @_ZNSt15__new_allocatorISt13_Rb_tree_nodeIN3re29RuneRangeEEED2Ev(ptr noundef nonnull align 1 dereferenceable(1) %this) unnamed_addr #0 comdat align 2 {
entry:
  %this.addr = alloca ptr, align 8
  store ptr %this, ptr %this.addr, align 8
  ret void
}

; Function Attrs: mustprogress nounwind uwtable
define linkonce_odr void @_ZNSaISt13_Rb_tree_nodeIN3re29RuneRangeEEED2Ev(ptr noundef nonnull align 1 dereferenceable(1) %this) unnamed_addr #0 comdat align 2 {
entry:
  %this.addr = alloca ptr, align 8
  store ptr %this, ptr %this.addr, align 8
  %this1 = load ptr, ptr %this.addr, align 8
  call void @_ZNSt15__new_allocatorISt13_Rb_tree_nodeIN3re29RuneRangeEEED2Ev(ptr noundef nonnull align 1 dereferenceable(1) %this1) #16
  ret void
}

; Function Attrs: mustprogress nounwind uwtable
define linkonce_odr noundef ptr @_ZNKSt8_Rb_treeIN3re29RuneRangeES1_St9_IdentityIS1_ENS0_13RuneRangeLessESaIS1_EE9_M_mbeginEv(ptr noundef nonnull align 8 dereferenceable(48) %this) #0 comdat align 2 {
entry:
  %this.addr = alloca ptr, align 8
  store ptr %this, ptr %this.addr, align 8
  %this1 = load ptr, ptr %this.addr, align 8
  %_M_impl = getelementptr inbounds %"class.std::_Rb_tree", ptr %this1, i32 0, i32 0
  %add.ptr = getelementptr inbounds i8, ptr %_M_impl, i64 8
  %_M_header = getelementptr inbounds %"struct.std::_Rb_tree_header", ptr %add.ptr, i32 0, i32 0
  %_M_parent = getelementptr inbounds %"struct.std::_Rb_tree_node_base", ptr %_M_header, i32 0, i32 1
  %0 = load ptr, ptr %_M_parent, align 8
  ret ptr %0
}

; Function Attrs: mustprogress nounwind uwtable
define linkonce_odr void @_ZNSt8_Rb_treeIN3re29RuneRangeES1_St9_IdentityIS1_ENS0_13RuneRangeLessESaIS1_EE13_Rb_tree_implIS4_Lb1EED2Ev(ptr noundef nonnull align 8 dereferenceable(48) %this) unnamed_addr #0 comdat align 2 {
entry:
  %this.addr = alloca ptr, align 8
  store ptr %this, ptr %this.addr, align 8
  %this1 = load ptr, ptr %this.addr, align 8
  call void @_ZNSaISt13_Rb_tree_nodeIN3re29RuneRangeEEED2Ev(ptr noundef nonnull align 1 dereferenceable(1) %this1) #16
  ret void
}

; Function Attrs: mustprogress nounwind uwtable
define linkonce_odr noundef ptr @_ZNSt8_Rb_treeIN3re29RuneRangeES1_St9_IdentityIS1_ENS0_13RuneRangeLessESaIS1_EE8_M_beginEv(ptr noundef nonnull align 8 dereferenceable(48) %this) #0 comdat align 2 {
entry:
  %this.addr = alloca ptr, align 8
  store ptr %this, ptr %this.addr, align 8
  %this1 = load ptr, ptr %this.addr, align 8
  %call = call noundef ptr @_ZNKSt8_Rb_treeIN3re29RuneRangeES1_St9_IdentityIS1_ENS0_13RuneRangeLessESaIS1_EE9_M_mbeginEv(ptr noundef nonnull align 8 dereferenceable(48) %this1) #16
  ret ptr %call
}

; Function Attrs: mustprogress nounwind uwtable
define linkonce_odr void @_ZNSt8_Rb_treeIN3re29RuneRangeES1_St9_IdentityIS1_ENS0_13RuneRangeLessESaIS1_EED2Ev(ptr noundef nonnull align 8 dereferenceable(48) %this) unnamed_addr #0 comdat align 2 personality ptr @__gxx_personality_v0 {
entry:
  %this.addr = alloca ptr, align 8
  store ptr %this, ptr %this.addr, align 8
  %this1 = load ptr, ptr %this.addr, align 8
  %call = call noundef ptr @_ZNSt8_Rb_treeIN3re29RuneRangeES1_St9_IdentityIS1_ENS0_13RuneRangeLessESaIS1_EE8_M_beginEv(ptr noundef nonnull align 8 dereferenceable(48) %this1) #16
  invoke void @_ZNSt8_Rb_treeIN3re29RuneRangeES1_St9_IdentityIS1_ENS0_13RuneRangeLessESaIS1_EE8_M_eraseEPSt13_Rb_tree_nodeIS1_E(ptr noundef nonnull align 8 dereferenceable(48) %this1, ptr noundef %call)
          to label %invoke.cont unwind label %terminate.lpad

invoke.cont:                                      ; preds = %entry
  %_M_impl = getelementptr inbounds %"class.std::_Rb_tree", ptr %this1, i32 0, i32 0
  call void @_ZNSt8_Rb_treeIN3re29RuneRangeES1_St9_IdentityIS1_ENS0_13RuneRangeLessESaIS1_EE13_Rb_tree_implIS4_Lb1EED2Ev(ptr noundef nonnull align 8 dereferenceable(48) %_M_impl) #16
  ret void

terminate.lpad:                                   ; preds = %entry
  %0 = landingpad { ptr, i32 }
          catch ptr null
  %1 = extractvalue { ptr, i32 } %0, 0
  call void @__clang_call_terminate(ptr %1) #18
  unreachable
}

; Function Attrs: mustprogress nounwind uwtable
define linkonce_odr void @_ZNSt3setIN3re29RuneRangeENS0_13RuneRangeLessESaIS1_EED2Ev(ptr noundef nonnull align 8 dereferenceable(48) %this) unnamed_addr #0 comdat align 2 {
entry:
  %this.addr = alloca ptr, align 8
  store ptr %this, ptr %this.addr, align 8
  %this1 = load ptr, ptr %this.addr, align 8
  %_M_t = getelementptr inbounds %"class.std::set", ptr %this1, i32 0, i32 0
  call void @_ZNSt8_Rb_treeIN3re29RuneRangeES1_St9_IdentityIS1_ENS0_13RuneRangeLessESaIS1_EED2Ev(ptr noundef nonnull align 8 dereferenceable(48) %_M_t) #16
  ret void
}

; Function Attrs: mustprogress nounwind uwtable
define linkonce_odr void @_ZN3re216CharClassBuilderD2Ev(ptr noundef nonnull align 8 dereferenceable(64) %this) unnamed_addr #0 comdat align 2 {
entry:
  %this.addr = alloca ptr, align 8
  store ptr %this, ptr %this.addr, align 8
  %this1 = load ptr, ptr %this.addr, align 8
  %ranges_ = getelementptr inbounds %"class.re2::CharClassBuilder", ptr %this1, i32 0, i32 3
  call void @_ZNSt3setIN3re29RuneRangeENS0_13RuneRangeLessESaIS1_EED2Ev(ptr noundef nonnull align 8 dereferenceable(48) %ranges_) #16
  ret void
}

; Function Attrs: mustprogress nounwind uwtable
define void @_ZN3re29CharClass6DeleteEv(ptr noundef nonnull align 8 dereferenceable(20) %this) #0 align 2 {
entry:
  %this.addr = alloca ptr, align 8
  %data = alloca ptr, align 8
  store ptr %this, ptr %this.addr, align 8
  %this1 = load ptr, ptr %this.addr, align 8
  store ptr %this1, ptr %data, align 8
  %0 = load ptr, ptr %data, align 8
  %isnull = icmp eq ptr %0, null
  br i1 %isnull, label %delete.end, label %delete.notnull

delete.notnull:                                   ; preds = %entry
  call void @_ZdaPv(ptr noundef %0) #17
  br label %delete.end

delete.end:                                       ; preds = %delete.notnull, %entry
  ret void
}

; Function Attrs: mustprogress nounwind uwtable
define linkonce_odr noundef nonnull align 8 dereferenceable(8) ptr @_ZN10LogMessage6streamEv(ptr noundef nonnull align 8 dereferenceable(384) %this) #0 comdat align 2 {
entry:
  %this.addr = alloca ptr, align 8
  store ptr %this, ptr %this.addr, align 8
  %this1 = load ptr, ptr %this.addr, align 8
  %str_ = getelementptr inbounds %class.LogMessage, ptr %this1, i32 0, i32 1
  ret ptr %str_
}

; Function Attrs: mustprogress uwtable
define linkonce_odr void @_ZN10LogMessageC2EPKci(ptr noundef nonnull align 8 dereferenceable(384) %this, ptr noundef %file, i32 noundef %line) unnamed_addr #3 comdat align 2 personality ptr @__gxx_personality_v0 {
entry:
  %this.addr = alloca ptr, align 8
  %file.addr = alloca ptr, align 8
  %line.addr = alloca i32, align 4
  %exn.slot = alloca ptr, align 8
  %ehselector.slot = alloca i32, align 4
  store ptr %this, ptr %this.addr, align 8
  store ptr %file, ptr %file.addr, align 8
  store i32 %line, ptr %line.addr, align 4
  %this1 = load ptr, ptr %this.addr, align 8
  %flushed_ = getelementptr inbounds %class.LogMessage, ptr %this1, i32 0, i32 0
  store i8 0, ptr %flushed_, align 8
  %str_ = getelementptr inbounds %class.LogMessage, ptr %this1, i32 0, i32 1
  call void @_ZNSt7__cxx1119basic_ostringstreamIcSt11char_traitsIcESaIcEEC1Ev(ptr noundef nonnull align 8 dereferenceable(112) %str_)
  %call = invoke noundef nonnull align 8 dereferenceable(8) ptr @_ZN10LogMessage6streamEv(ptr noundef nonnull align 8 dereferenceable(384) %this1)
          to label %invoke.cont unwind label %lpad

invoke.cont:                                      ; preds = %entry
  %0 = load ptr, ptr %file.addr, align 8
  %call3 = invoke noundef nonnull align 8 dereferenceable(8) ptr @_ZStlsISt11char_traitsIcEERSt13basic_ostreamIcT_ES5_PKc(ptr noundef nonnull align 8 dereferenceable(8) %call, ptr noundef %0)
          to label %invoke.cont2 unwind label %lpad

invoke.cont2:                                     ; preds = %invoke.cont
  %call5 = invoke noundef nonnull align 8 dereferenceable(8) ptr @_ZStlsISt11char_traitsIcEERSt13basic_ostreamIcT_ES5_PKc(ptr noundef nonnull align 8 dereferenceable(8) %call3, ptr noundef @.str.4)
          to label %invoke.cont4 unwind label %lpad

invoke.cont4:                                     ; preds = %invoke.cont2
  %1 = load i32, ptr %line.addr, align 4
  %call7 = invoke noundef nonnull align 8 dereferenceable(8) ptr @_ZNSolsEi(ptr noundef nonnull align 8 dereferenceable(8) %call5, i32 noundef %1)
          to label %invoke.cont6 unwind label %lpad

invoke.cont6:                                     ; preds = %invoke.cont4
  %call9 = invoke noundef nonnull align 8 dereferenceable(8) ptr @_ZStlsISt11char_traitsIcEERSt13basic_ostreamIcT_ES5_PKc(ptr noundef nonnull align 8 dereferenceable(8) %call7, ptr noundef @.str.3)
          to label %invoke.cont8 unwind label %lpad

invoke.cont8:                                     ; preds = %invoke.cont6
  ret void

lpad:                                             ; preds = %invoke.cont6, %invoke.cont4, %invoke.cont2, %invoke.cont, %entry
  %2 = landingpad { ptr, i32 }
          cleanup
  %3 = extractvalue { ptr, i32 } %2, 0
  store ptr %3, ptr %exn.slot, align 8
  %4 = extractvalue { ptr, i32 } %2, 1
  store i32 %4, ptr %ehselector.slot, align 4
  call void @_ZNSt7__cxx1119basic_ostringstreamIcSt11char_traitsIcESaIcEED1Ev(ptr noundef nonnull align 8 dereferenceable(112) %str_) #16
  br label %eh.resume

eh.resume:                                        ; preds = %lpad
  %exn = load ptr, ptr %exn.slot, align 8
  %sel = load i32, ptr %ehselector.slot, align 4
  %lpad.val = insertvalue { ptr, i32 } poison, ptr %exn, 0
  %lpad.val10 = insertvalue { ptr, i32 } %lpad.val, i32 %sel, 1
  resume { ptr, i32 } %lpad.val10
}

; Function Attrs: mustprogress nounwind uwtable
define void @_ZN3re26RegexpD2Ev(ptr noundef nonnull align 8 dereferenceable(40) %this) unnamed_addr #0 align 2 personality ptr @__gxx_personality_v0 {
entry:
  %this.addr = alloca ptr, align 8
  %ref.tmp = alloca %class.LogMessage, align 8
  store ptr %this, ptr %this.addr, align 8
  %this1 = load ptr, ptr %this.addr, align 8
  %nsub_ = getelementptr inbounds %"class.re2::Regexp", ptr %this1, i32 0, i32 4
  %0 = load i16, ptr %nsub_, align 2
  %conv = zext i16 %0 to i32
  %cmp = icmp sgt i32 %conv, 0
  br i1 %cmp, label %if.then, label %if.end

if.then:                                          ; preds = %entry
  invoke void @_ZN10LogMessageC2EPKci(ptr noundef nonnull align 8 dereferenceable(384) %ref.tmp, ptr noundef @.str, i32 noundef 48)
          to label %invoke.cont unwind label %terminate.lpad

invoke.cont:                                      ; preds = %if.then
  %call = invoke noundef nonnull align 8 dereferenceable(8) ptr @_ZN10LogMessage6streamEv(ptr noundef nonnull align 8 dereferenceable(384) %ref.tmp)
          to label %invoke.cont2 unwind label %terminate.lpad

invoke.cont2:                                     ; preds = %invoke.cont
  %call4 = invoke noundef nonnull align 8 dereferenceable(8) ptr @_ZStlsISt11char_traitsIcEERSt13basic_ostreamIcT_ES5_PKc(ptr noundef nonnull align 8 dereferenceable(8) %call, ptr noundef @.str.1)
          to label %invoke.cont3 unwind label %terminate.lpad

invoke.cont3:                                     ; preds = %invoke.cont2
  call void @_ZN10LogMessageD2Ev(ptr noundef nonnull align 8 dereferenceable(384) %ref.tmp) #16
  br label %if.end

if.end:                                           ; preds = %invoke.cont3, %entry
  %op_ = getelementptr inbounds %"class.re2::Regexp", ptr %this1, i32 0, i32 0
  %1 = load i8, ptr %op_, align 8
  %conv5 = zext i8 %1 to i32
  switch i32 %conv5, label %sw.default [
    i32 11, label %sw.bb
    i32 4, label %sw.bb6
    i32 20, label %sw.bb10
  ]

sw.default:                                       ; preds = %if.end
  br label %sw.epilog

sw.bb:                                            ; preds = %if.end
  %2 = getelementptr inbounds %"class.re2::Regexp", ptr %this1, i32 0, i32 7
  %name_ = getelementptr inbounds %struct.anon.1, ptr %2, i32 0, i32 1
  %3 = load ptr, ptr %name_, align 8
  %isnull = icmp eq ptr %3, null
  br i1 %isnull, label %delete.end, label %delete.notnull

delete.notnull:                                   ; preds = %sw.bb
  call void @_ZNSt7__cxx1112basic_stringIcSt11char_traitsIcESaIcEED1Ev(ptr noundef nonnull align 8 dereferenceable(32) %3) #16
  call void @_ZdlPv(ptr noundef %3) #17
  br label %delete.end

delete.end:                                       ; preds = %delete.notnull, %sw.bb
  br label %sw.epilog

sw.bb6:                                           ; preds = %if.end
  %4 = getelementptr inbounds %"class.re2::Regexp", ptr %this1, i32 0, i32 7
  %runes_ = getelementptr inbounds %struct.anon.2, ptr %4, i32 0, i32 1
  %5 = load ptr, ptr %runes_, align 8
  %isnull7 = icmp eq ptr %5, null
  br i1 %isnull7, label %delete.end9, label %delete.notnull8

delete.notnull8:                                  ; preds = %sw.bb6
  call void @_ZdaPv(ptr noundef %5) #17
  br label %delete.end9

delete.end9:                                      ; preds = %delete.notnull8, %sw.bb6
  br label %sw.epilog

sw.bb10:                                          ; preds = %if.end
  %6 = getelementptr inbounds %"class.re2::Regexp", ptr %this1, i32 0, i32 7
  %cc_ = getelementptr inbounds %struct.anon.3, ptr %6, i32 0, i32 0
  %7 = load ptr, ptr %cc_, align 8
  %tobool = icmp ne ptr %7, null
  br i1 %tobool, label %if.then11, label %if.end14

if.then11:                                        ; preds = %sw.bb10
  %8 = getelementptr inbounds %"class.re2::Regexp", ptr %this1, i32 0, i32 7
  %cc_12 = getelementptr inbounds %struct.anon.3, ptr %8, i32 0, i32 0
  %9 = load ptr, ptr %cc_12, align 8
  invoke void @_ZN3re29CharClass6DeleteEv(ptr noundef nonnull align 8 dereferenceable(20) %9)
          to label %invoke.cont13 unwind label %terminate.lpad

invoke.cont13:                                    ; preds = %if.then11
  br label %if.end14

if.end14:                                         ; preds = %invoke.cont13, %sw.bb10
  %10 = getelementptr inbounds %"class.re2::Regexp", ptr %this1, i32 0, i32 7
  %ccb_ = getelementptr inbounds %struct.anon.3, ptr %10, i32 0, i32 1
  %11 = load ptr, ptr %ccb_, align 8
  %isnull15 = icmp eq ptr %11, null
  br i1 %isnull15, label %delete.end17, label %delete.notnull16

delete.notnull16:                                 ; preds = %if.end14
  call void @_ZN3re216CharClassBuilderD2Ev(ptr noundef nonnull align 8 dereferenceable(64) %11) #16
  call void @_ZdlPv(ptr noundef %11) #17
  br label %delete.end17

delete.end17:                                     ; preds = %delete.notnull16, %if.end14
  br label %sw.epilog

sw.epilog:                                        ; preds = %delete.end17, %delete.end9, %delete.end, %sw.default
  ret void

terminate.lpad:                                   ; preds = %if.then11, %invoke.cont2, %invoke.cont, %if.then
  %12 = landingpad { ptr, i32 }
          catch ptr null
  %13 = extractvalue { ptr, i32 } %12, 0
  call void @__clang_call_terminate(ptr %13) #18
  unreachable
}