; Function Attrs: mustprogress nounwind uwtable
define void @_ZN3re26RegexpD2Ev(ptr nocapture noundef nonnull readonly align 8 dereferenceable(40) %this) unnamed_addr #2 align 2 personality ptr @__gxx_personality_v0 {
entry:
  %ref.tmp = alloca %class.LogMessage, align 8
  %nsub_ = getelementptr inbounds i8, ptr %this, i64 6
  %0 = load i16, ptr %nsub_, align 2
  %cmp.not = icmp eq i16 %0, 0
  br i1 %cmp.not, label %if.end, label %if.then

if.then:                                          ; preds = %entry
  store i8 0, ptr %ref.tmp, align 8
  %str_.i = getelementptr inbounds i8, ptr %ref.tmp, i64 8
  invoke void @_ZNSt7__cxx1119basic_ostringstreamIcSt11char_traitsIcESaIcEEC1Ev(ptr noundef nonnull align 8 dereferenceable(112) %str_.i)
          to label %.noexc unwind label %terminate.lpad

.noexc:                                           ; preds = %if.then
  %call3.i = invoke noundef nonnull align 8 dereferenceable(8) ptr @_ZStlsISt11char_traitsIcEERSt13basic_ostreamIcT_ES5_PKc(ptr noundef nonnull align 8 dereferenceable(8) %str_.i, ptr noundef nonnull @.str)
          to label %invoke.cont2.i unwind label %lpad.i

invoke.cont2.i:                                   ; preds = %.noexc
  %call5.i = invoke noundef nonnull align 8 dereferenceable(8) ptr @_ZStlsISt11char_traitsIcEERSt13basic_ostreamIcT_ES5_PKc(ptr noundef nonnull align 8 dereferenceable(8) %call3.i, ptr noundef nonnull @.str.4)
          to label %invoke.cont4.i unwind label %lpad.i

invoke.cont4.i:                                   ; preds = %invoke.cont2.i
  %call7.i = invoke noundef nonnull align 8 dereferenceable(8) ptr @_ZNSolsEi(ptr noundef nonnull align 8 dereferenceable(8) %call5.i, i32 noundef 48)
          to label %invoke.cont6.i unwind label %lpad.i

invoke.cont6.i:                                   ; preds = %invoke.cont4.i
  %call9.i = invoke noundef nonnull align 8 dereferenceable(8) ptr @_ZStlsISt11char_traitsIcEERSt13basic_ostreamIcT_ES5_PKc(ptr noundef nonnull align 8 dereferenceable(8) %call7.i, ptr noundef nonnull @.str.3)
          to label %invoke.cont unwind label %lpad.i

lpad.i:                                           ; preds = %invoke.cont6.i, %invoke.cont4.i, %invoke.cont2.i, %.noexc
  %1 = landingpad { ptr, i32 }
          catch ptr null
  call void @_ZNSt7__cxx1119basic_ostringstreamIcSt11char_traitsIcESaIcEED1Ev(ptr noundef nonnull align 8 dereferenceable(112) %str_.i) #25
  br label %terminate.lpad.body

invoke.cont:                                      ; preds = %invoke.cont6.i
  %call4 = invoke noundef nonnull align 8 dereferenceable(8) ptr @_ZStlsISt11char_traitsIcEERSt13basic_ostreamIcT_ES5_PKc(ptr noundef nonnull align 8 dereferenceable(8) %str_.i, ptr noundef nonnull @.str.1)
          to label %invoke.cont3 unwind label %terminate.lpad

invoke.cont3:                                     ; preds = %invoke.cont
  call void @_ZN10LogMessageD2Ev(ptr noundef nonnull align 8 dereferenceable(384) %ref.tmp) #25
  br label %if.end

if.end:                                           ; preds = %invoke.cont3, %entry
  %2 = load i8, ptr %this, align 8
  switch i8 %2, label %sw.epilog [
    i8 11, label %sw.bb
    i8 4, label %sw.bb6
    i8 20, label %sw.bb10
  ]

sw.bb:                                            ; preds = %if.end
  %name_ = getelementptr inbounds i8, ptr %this, i64 32
  %3 = load ptr, ptr %name_, align 8
  %isnull = icmp eq ptr %3, null
  br i1 %isnull, label %sw.epilog, label %delete.notnull

delete.notnull:                                   ; preds = %sw.bb
  call void @_ZNSt7__cxx1112basic_stringIcSt11char_traitsIcESaIcEED1Ev(ptr noundef nonnull align 8 dereferenceable(32) %3) #25
  call void @_ZdlPv(ptr noundef nonnull %3) #26
  br label %sw.epilog

sw.bb6:                                           ; preds = %if.end
  %runes_ = getelementptr inbounds i8, ptr %this, i64 32
  %4 = load ptr, ptr %runes_, align 8
  %isnull7 = icmp eq ptr %4, null
  br i1 %isnull7, label %sw.epilog, label %delete.notnull8

delete.notnull8:                                  ; preds = %sw.bb6
  call void @_ZdaPv(ptr noundef nonnull %4) #26
  br label %sw.epilog

sw.bb10:                                          ; preds = %if.end
  %5 = getelementptr inbounds i8, ptr %this, i64 24
  %6 = load ptr, ptr %5, align 8
  %tobool.not = icmp eq ptr %6, null
  br i1 %tobool.not, label %if.end14, label %if.then11

if.then11:                                        ; preds = %sw.bb10
  call void @_ZdaPv(ptr noundef nonnull %6) #26
  br label %if.end14

if.end14:                                         ; preds = %if.then11, %sw.bb10
  %ccb_ = getelementptr inbounds i8, ptr %this, i64 32
  %7 = load ptr, ptr %ccb_, align 8
  %isnull15 = icmp eq ptr %7, null
  br i1 %isnull15, label %sw.epilog, label %delete.notnull16

delete.notnull16:                                 ; preds = %if.end14
  %ranges_.i = getelementptr inbounds i8, ptr %7, i64 16
  %_M_parent.i.i.i.i.i = getelementptr inbounds i8, ptr %7, i64 32
  %8 = load ptr, ptr %_M_parent.i.i.i.i.i, align 8
  invoke void @_ZNSt8_Rb_treeIN3re29RuneRangeES1_St9_IdentityIS1_ENS0_13RuneRangeLessESaIS1_EE8_M_eraseEPSt13_Rb_tree_nodeIS1_E(ptr noundef nonnull align 8 dereferenceable(48) %ranges_.i, ptr noundef %8)
          to label %_ZN3re216CharClassBuilderD2Ev.exit unwind label %terminate.lpad.i.i.i

terminate.lpad.i.i.i:                             ; preds = %delete.notnull16
  %9 = landingpad { ptr, i32 }
          catch ptr null
  %10 = extractvalue { ptr, i32 } %9, 0
  call void @__clang_call_terminate(ptr %10) #27
  unreachable

_ZN3re216CharClassBuilderD2Ev.exit:               ; preds = %delete.notnull16
  call void @_ZdlPv(ptr noundef nonnull %7) #26
  br label %sw.epilog

sw.epilog:                                        ; preds = %if.end14, %_ZN3re216CharClassBuilderD2Ev.exit, %sw.bb6, %delete.notnull8, %sw.bb, %delete.notnull, %if.end
  ret void

terminate.lpad:                                   ; preds = %if.then, %invoke.cont
  %11 = landingpad { ptr, i32 }
          catch ptr null
  br label %terminate.lpad.body

terminate.lpad.body:                              ; preds = %lpad.i, %terminate.lpad
  %eh.lpad-body = phi { ptr, i32 } [ %11, %terminate.lpad ], [ %1, %lpad.i ]
  %12 = extractvalue { ptr, i32 } %eh.lpad-body, 0
  call void @__clang_call_terminate(ptr %12) #27
  unreachable
}